target datalayout = "e-m:e-p270:32:32-p271:32:32-p272:64:64-i64:64-i128:128-f80:128-n8:16:32:64-S128"
target triple = "x86_64-pc-linux-gnu"

%struct._object = type { i64, ptr }
%class.anon.291 = type { i8 }

@_ZL17value_constructed = internal global i32 0, align 4
@_ZL10destructed = internal global i32 0, align 4
@_ZL16copy_constructed = internal global i32 0, align 4
@_ZL16move_constructed = internal global i32 0, align 4
@_Py_NoneStruct = external global %struct._object, align 8
@_ZL19default_constructed = internal global i32 0, align 4
@_ZL7pickled = internal global i32 0, align 4
@_ZL9unpickled = internal global i32 0, align 4
@_ZL13copy_assigned = internal global i32 0, align 4
@_ZL13move_assigned = internal global i32 0, align 4

; Function Attrs: inlinehint mustprogress nounwind optsize uwtable
define internal void @_ZL10_Py_INCREFP7_object(ptr noundef %0) #12 {
  %2 = alloca ptr, align 8
  store ptr %0, ptr %2, align 8, !tbaa !21
  %3 = load ptr, ptr %2, align 8, !tbaa !21
  %4 = getelementptr inbounds nuw %struct._object, ptr %3, i32 0, i32 0
  %5 = load i64, ptr %4, align 8, !tbaa !111
  %6 = add nsw i64 %5, 1
  store i64 %6, ptr %4, align 8, !tbaa !111
  ret void
}

; Function Attrs: inlinehint mustprogress nounwind optsize uwtable
define internal void @"_ZZL30nanobind_init_test_classes_extRN8nanobind7module_EENK3$_6clEv"(ptr noundef nonnull align 1 dereferenceable(1) %0) #12 align 2 {
  %2 = alloca ptr, align 8
  store ptr %0, ptr %2, align 8, !tbaa !23
  store i32 0, ptr @_ZL19default_constructed, align 4, !tbaa !26
  store i32 0, ptr @_ZL17value_constructed, align 4, !tbaa !26
  store i32 0, ptr @_ZL16copy_constructed, align 4, !tbaa !26
  store i32 0, ptr @_ZL16move_constructed, align 4, !tbaa !26
  store i32 0, ptr @_ZL13copy_assigned, align 4, !tbaa !26
  store i32 0, ptr @_ZL13move_assigned, align 4, !tbaa !26
  store i32 0, ptr @_ZL10destructed, align 4, !tbaa !26
  store i32 0, ptr @_ZL7pickled, align 4, !tbaa !26
  store i32 0, ptr @_ZL9unpickled, align 4, !tbaa !26
  ret void
}

; Function Attrs: alwaysinline mustprogress optsize uwtable
define internal noundef ptr @"_ZZN8nanobind6detail11func_createILb0ELb1EZL30nanobind_init_test_classes_extRNS_7module_EE3$_6vJETpTnmJEJNS_5scopeENS_4nameEEEEP7_objectOT1_PFT2_DpT3_ESt16integer_sequenceImJXspT4_EEEDpRKT5_ENKUlPvPS8_PhNS_9rv_policyEPNS0_12cleanup_listEE_clESM_SN_SO_SP_SR_"(ptr noundef nonnull align 1 dereferenceable(1) %0, ptr noundef %1, ptr noundef %2, ptr noundef %3, i32 noundef %4, ptr noundef %5) #8 align 2 {
  %7 = alloca ptr, align 8
  %8 = alloca ptr, align 8
  %9 = alloca ptr, align 8
  %10 = alloca ptr, align 8
  %11 = alloca i32, align 4
  %12 = alloca ptr, align 8
  %13 = alloca ptr, align 8
  %14 = alloca ptr, align 8
  store ptr %0, ptr %7, align 8, !tbaa !23
  store ptr %1, ptr %8, align 8, !tbaa !23
  store ptr %2, ptr %9, align 8, !tbaa !424
  store ptr %3, ptr %10, align 8, !tbaa !116
  store i32 %4, ptr %11, align 4, !tbaa !43
  store ptr %5, ptr %12, align 8, !tbaa !426
  call void @llvm.lifetime.start.p0(i64 8, ptr %13) #2
  %15 = load ptr, ptr %8, align 8, !tbaa !23
  store ptr %15, ptr %13, align 8, !tbaa !581
  call void @llvm.lifetime.start.p0(i64 8, ptr %14) #2
  %16 = load ptr, ptr %13, align 8, !tbaa !581
  call void @"_ZZL30nanobind_init_test_classes_extRN8nanobind7module_EENK3$_6clEv"(ptr noundef nonnull align 1 dereferenceable(1) %16) #25
  store ptr @_Py_NoneStruct, ptr %14, align 8, !tbaa !21
  %17 = load ptr, ptr %14, align 8, !tbaa !21
  call void @_ZL10_Py_INCREFP7_object(ptr noundef %17) #25
  %18 = load ptr, ptr %14, align 8, !tbaa !21
  call void @llvm.lifetime.end.p0(i64 8, ptr %14) #2
  call void @llvm.lifetime.end.p0(i64 8, ptr %13) #2
  ret ptr %18
}

; Function Attrs: inlinehint mustprogress optsize uwtable
define internal noundef ptr @"_ZZN8nanobind6detail11func_createILb0ELb1EZL30nanobind_init_test_classes_extRNS_7module_EE3$_6vJETpTnmJEJNS_5scopeENS_4nameEEEEP7_objectOT1_PFT2_DpT3_ESt16integer_sequenceImJXspT4_EEEDpRKT5_ENUlPvPS8_PhNS_9rv_policyEPNS0_12cleanup_listEE_8__invokeESM_SN_SO_SP_SR_"(ptr noundef %0, ptr noundef %1, ptr noundef %2, i32 noundef %3, ptr noundef %4) #14 align 2 {
  %6 = alloca ptr, align 8
  %7 = alloca ptr, align 8
  %8 = alloca ptr, align 8
  %9 = alloca i32, align 4
  %10 = alloca ptr, align 8
  %11 = alloca %class.anon.291, align 1
  store ptr %0, ptr %6, align 8, !tbaa !23
  store ptr %1, ptr %7, align 8, !tbaa !424
  store ptr %2, ptr %8, align 8, !tbaa !116
  store i32 %3, ptr %9, align 4, !tbaa !43
  store ptr %4, ptr %10, align 8, !tbaa !426
  %12 = load ptr, ptr %6, align 8, !tbaa !23
  %13 = load ptr, ptr %7, align 8, !tbaa !424
  %14 = load ptr, ptr %8, align 8, !tbaa !116
  %15 = load i32, ptr %9, align 4, !tbaa !43
  %16 = load ptr, ptr %10, align 8, !tbaa !426
  %17 = call noundef ptr @"_ZZN8nanobind6detail11func_createILb0ELb1EZL30nanobind_init_test_classes_extRNS_7module_EE3$_6vJETpTnmJEJNS_5scopeENS_4nameEEEEP7_objectOT1_PFT2_DpT3_ESt16integer_sequenceImJXspT4_EEEDpRKT5_ENKUlPvPS8_PhNS_9rv_policyEPNS0_12cleanup_listEE_clESM_SN_SO_SP_SR_"(ptr noundef nonnull align 1 dereferenceable(1) %11, ptr noundef %12, ptr noundef %13, ptr noundef %14, i32 noundef %15, ptr noundef %16) #25
  ret ptr %17
}