; Function Attrs: inlinehint mustprogress nofree norecurse nosync nounwind optsize willreturn memory(readwrite, argmem: none, inaccessiblemem: none) uwtable
define internal noundef nonnull ptr @"_ZZN8nanobind6detail11func_createILb0ELb1EZL30nanobind_init_test_classes_extRNS_7module_EE3$_6vJETpTnmJEJNS_5scopeENS_4nameEEEEP7_objectOT1_PFT2_DpT3_ESt16integer_sequenceImJXspT4_EEEDpRKT5_ENUlPvPS8_PhNS_9rv_policyEPNS0_12cleanup_listEE_8__invokeESM_SN_SO_SP_SR_"(ptr readnone captures(none) %0, ptr readnone captures(none) %1, ptr readnone captures(none) %2, i32 %3, ptr readnone captures(none) %4) #17 align 2 {
  store i32 0, ptr @_ZL19default_constructed, align 4, !tbaa !32
  store i32 0, ptr @_ZL17value_constructed, align 4, !tbaa !32
  store i32 0, ptr @_ZL16copy_constructed, align 4, !tbaa !32
  store i32 0, ptr @_ZL16move_constructed, align 4, !tbaa !32
  store i32 0, ptr @_ZL13copy_assigned, align 4, !tbaa !32
  store i32 0, ptr @_ZL13move_assigned, align 4, !tbaa !32
  store i32 0, ptr @_ZL10destructed, align 4, !tbaa !32
  store i32 0, ptr @_ZL7pickled, align 4, !tbaa !32
  store i32 0, ptr @_ZL9unpickled, align 4, !tbaa !32
  %6 = load i64, ptr @_Py_NoneStruct, align 8, !tbaa !86
  %7 = add nsw i64 %6, 1
  store i64 %7, ptr @_Py_NoneStruct, align 8, !tbaa !86
  ret ptr @_Py_NoneStruct
}